target datalayout = "e-m:e-p270:32:32-p271:32:32-p272:64:64-i64:64-i128:128-f80:128-n8:16:32:64-S128"
target triple = "x86_64-pc-linux-gnu"

%class.NativeCallStack = type { [4 x ptr] }

; Function Attrs: mustprogress nounwind uwtable
define hidden void @_ZN15NativeCallStackC2EPPhi(ptr noundef nonnull align 8 dereferenceable(32) %0, ptr noundef %1, i32 noundef %2) unnamed_addr #1 align 2 {
  %4 = alloca ptr, align 8
  %5 = alloca ptr, align 8
  %6 = alloca i32, align 4
  %7 = alloca i32, align 4
  %8 = alloca i32, align 4
  store ptr %0, ptr %4, align 8
  store ptr %1, ptr %5, align 8
  store i32 %2, ptr %6, align 4
  %9 = load ptr, ptr %4, align 8
  %10 = load i32, ptr %6, align 4
  %11 = icmp slt i32 %10, 4
  br i1 %11, label %12, label %14

12:                                               ; preds = %3
  %13 = load i32, ptr %6, align 4
  br label %15

14:                                               ; preds = %3
  br label %15

15:                                               ; preds = %14, %12
  %16 = phi i32 [ %13, %12 ], [ 4, %14 ]
  store i32 %16, ptr %7, align 4
  store i32 0, ptr %8, align 4
  br label %17

17:                                               ; preds = %31, %15
  %18 = load i32, ptr %8, align 4
  %19 = load i32, ptr %7, align 4
  %20 = icmp slt i32 %18, %19
  br i1 %20, label %21, label %34

21:                                               ; preds = %17
  %22 = load ptr, ptr %5, align 8
  %23 = load i32, ptr %8, align 4
  %24 = sext i32 %23 to i64
  %25 = getelementptr inbounds ptr, ptr %22, i64 %24
  %26 = load ptr, ptr %25, align 8
  %27 = getelementptr inbounds %class.NativeCallStack, ptr %9, i32 0, i32 0
  %28 = load i32, ptr %8, align 4
  %29 = sext i32 %28 to i64
  %30 = getelementptr inbounds [4 x ptr], ptr %27, i64 0, i64 %29
  store ptr %26, ptr %30, align 8
  br label %31

31:                                               ; preds = %21
  %32 = load i32, ptr %8, align 4
  %33 = add nsw i32 %32, 1
  store i32 %33, ptr %8, align 4
  br label %17, !llvm.loop !6

34:                                               ; preds = %17
  br label %35

35:                                               ; preds = %43, %34
  %36 = load i32, ptr %8, align 4
  %37 = icmp slt i32 %36, 4
  br i1 %37, label %38, label %46

38:                                               ; preds = %35
  %39 = getelementptr inbounds %class.NativeCallStack, ptr %9, i32 0, i32 0
  %40 = load i32, ptr %8, align 4
  %41 = sext i32 %40 to i64
  %42 = getelementptr inbounds [4 x ptr], ptr %39, i64 0, i64 %41
  store ptr null, ptr %42, align 8
  br label %43

43:                                               ; preds = %38
  %44 = load i32, ptr %8, align 4
  %45 = add nsw i32 %44, 1
  store i32 %45, ptr %8, align 4
  br label %35, !llvm.loop !8

46:                                               ; preds = %35
  ret void
}