; Function Attrs: mustprogress nofree norecurse nosync nounwind memory(argmem: readwrite) uwtable
define hidden void @_ZN15NativeCallStackC2EPPhi(ptr nocapture noundef nonnull writeonly align 8 dereferenceable(32) %0, ptr nocapture noundef readonly %1, i32 noundef %2) unnamed_addr #2 align 2 {
  %4 = tail call i32 @llvm.smin.i32(i32 %2, i32 4)
  %5 = icmp sgt i32 %2, 0
  br i1 %5, label %.lr.ph.preheader, label %.lr.ph13.preheader

.lr.ph.preheader:                                 ; preds = %3
  %wide.trip.count = zext nneg i32 %4 to i64
  br label %.lr.ph

.preheader:                                       ; preds = %.lr.ph
  %6 = icmp slt i32 %2, 4
  br i1 %6, label %.lr.ph13.preheader, label %._crit_edge

.lr.ph13.preheader:                               ; preds = %3, %.preheader
  %.0.lcssa19 = phi i32 [ %4, %.preheader ], [ 0, %3 ]
  %7 = shl nuw nsw i32 %.0.lcssa19, 3
  %8 = zext nneg i32 %7 to i64
  %scevgep = getelementptr i8, ptr %0, i64 %8
  %9 = shl nuw nsw i32 %.0.lcssa19, 3
  %narrow = sub nuw nsw i32 32, %9
  %10 = zext nneg i32 %narrow to i64
  tail call void @llvm.memset.p0.i64(ptr align 8 %scevgep, i8 0, i64 %10, i1 false)
  br label %._crit_edge

.lr.ph:                                           ; preds = %.lr.ph.preheader, %.lr.ph
  %indvars.iv = phi i64 [ 0, %.lr.ph.preheader ], [ %indvars.iv.next, %.lr.ph ]
  %11 = getelementptr inbounds ptr, ptr %1, i64 %indvars.iv
  %12 = load ptr, ptr %11, align 8
  %13 = getelementptr inbounds [4 x ptr], ptr %0, i64 0, i64 %indvars.iv
  store ptr %12, ptr %13, align 8
  %indvars.iv.next = add nuw nsw i64 %indvars.iv, 1
  %exitcond.not = icmp eq i64 %indvars.iv.next, %wide.trip.count
  br i1 %exitcond.not, label %.preheader, label %.lr.ph, !llvm.loop !6

._crit_edge:                                      ; preds = %.lr.ph13.preheader, %.preheader
  ret void
}